; Function Attrs: nounwind uwtable
define void @PMIx_Query_destruct(ptr noundef captures(none) %0) local_unnamed_addr #6 {
  %2 = load ptr, ptr %0, align 8, !tbaa !129
  %.not.i = icmp eq ptr %2, null
  br i1 %.not.i, label %7, label %.preheader.i.i

.preheader.i.i:                                   ; preds = %1
  %3 = load ptr, ptr %2, align 8, !tbaa !12
  %.not101.i.i = icmp eq ptr %3, null
  br i1 %.not101.i.i, label %pmix_bfrops_base_tma_argv_free.exit.i, label %.lr.ph.i.i

.lr.ph.i.i:                                       ; preds = %.preheader.i.i, %.lr.ph.i.i
  %4 = phi ptr [ %6, %.lr.ph.i.i ], [ %3, %.preheader.i.i ]
  %.02.i.i = phi ptr [ %5, %.lr.ph.i.i ], [ %2, %.preheader.i.i ]
  tail call void @free(ptr noundef nonnull %4) #44
  %5 = getelementptr inbounds nuw i8, ptr %.02.i.i, i64 8
  %6 = load ptr, ptr %5, align 8, !tbaa !12
  %.not10.i.i = icmp eq ptr %6, null
  br i1 %.not10.i.i, label %pmix_bfrops_base_tma_argv_free.exit.i, label %.lr.ph.i.i, !llvm.loop !19

pmix_bfrops_base_tma_argv_free.exit.i:            ; preds = %.lr.ph.i.i, %.preheader.i.i
  tail call void @free(ptr noundef nonnull %2) #44
  store ptr null, ptr %0, align 8, !tbaa !129
  br label %7

7:                                                ; preds = %pmix_bfrops_base_tma_argv_free.exit.i, %1
  %8 = getelementptr inbounds nuw i8, ptr %0, i64 8
  %9 = load ptr, ptr %8, align 8, !tbaa !131
  %.not11.i = icmp eq ptr %9, null
  br i1 %.not11.i, label %pmix_bfrops_base_tma_query_destruct.exit, label %10

10:                                               ; preds = %7
  %11 = getelementptr inbounds nuw i8, ptr %0, i64 16
  %12 = load i64, ptr %11, align 8, !tbaa !132
  %.not2.i = icmp eq i64 %12, 0
  br i1 %.not2.i, label %pmix_bfrops_base_tma_info_free.exit.i, label %.lr.ph.i

.lr.ph.i:                                         ; preds = %10, %pmix_bfrops_base_tma_info_destruct.exit.i
  %.0.i1.i = phi i64 [ %18, %pmix_bfrops_base_tma_info_destruct.exit.i ], [ 0, %10 ]
  %13 = getelementptr inbounds nuw %struct.pmix_info, ptr %9, i64 %.0.i1.i
  %14 = getelementptr i8, ptr %13, i64 512
  %.val.i.i = load i32, ptr %14, align 8, !tbaa !80
  %15 = and i32 %.val.i.i, 16
  %.not.i13.i = icmp eq i32 %15, 0
  br i1 %.not.i13.i, label %16, label %pmix_bfrops_base_tma_info_destruct.exit.i

16:                                               ; preds = %.lr.ph.i
  %17 = getelementptr inbounds nuw i8, ptr %13, i64 520
  tail call fastcc void @pmix_bfrops_base_tma_value_destruct(ptr noundef nonnull %17)
  br label %pmix_bfrops_base_tma_info_destruct.exit.i

pmix_bfrops_base_tma_info_destruct.exit.i:        ; preds = %16, %.lr.ph.i
  %18 = add nuw i64 %.0.i1.i, 1
  %exitcond.not.i = icmp eq i64 %18, %12
  br i1 %exitcond.not.i, label %pmix_bfrops_base_tma_info_free.exit.i, label %.lr.ph.i, !llvm.loop !83

pmix_bfrops_base_tma_info_free.exit.i:            ; preds = %pmix_bfrops_base_tma_info_destruct.exit.i, %10
  tail call void @free(ptr noundef nonnull %9) #44
  tail call void @llvm.memset.p0.i64(ptr noundef nonnull align 8 dereferenceable(16) %8, i8 0, i64 16, i1 false)
  br label %pmix_bfrops_base_tma_query_destruct.exit

pmix_bfrops_base_tma_query_destruct.exit:         ; preds = %7, %pmix_bfrops_base_tma_info_free.exit.i
  ret void
}